target datalayout = "e-m:e-p270:32:32-p271:32:32-p272:64:64-i64:64-i128:128-f80:128-n8:16:32:64-S128"
target triple = "x86_64-pc-linux-gnu"

%struct.AVChannelLayout = type { i32, i32, %union.anon.1, ptr }
%union.anon.1 = type { i64 }
%struct.AVFilterLink = type { ptr, ptr, ptr, ptr, i32, i32, i32, i32, %struct.AVRational, i32, i32, i32, %struct.AVChannelLayout, %struct.AVRational, ptr, i32, %struct.AVFilterFormatsConfig, %struct.AVFilterFormatsConfig }
%struct.AVRational = type { i32, i32 }
%struct.AVFilterFormatsConfig = type { ptr, ptr, ptr, ptr, ptr }
%struct.AVFilterContext = type { ptr, ptr, ptr, ptr, ptr, i32, ptr, ptr, i32, ptr, ptr, i32, i32, ptr, ptr, ptr, ptr, i32, ptr, i32, i32 }
%struct.AVFrame = type { [8 x ptr], [8 x i32], ptr, i32, i32, i32, i32, i32, %struct.AVRational, i64, i64, %struct.AVRational, i32, ptr, i32, i32, [8 x ptr], ptr, i32, ptr, i32, i32, i32, i32, i32, i32, i32, i64, ptr, i32, ptr, ptr, i64, i64, i64, i64, ptr, %struct.AVChannelLayout, i64 }
%struct.AudioPulsatorContext = type { ptr, i32, double, double, double, double, double, double, double, double, i32, i32, %struct.SimpleLFO, %struct.SimpleLFO }
%struct.SimpleLFO = type { double, double, double, double, double, i32, i32 }

; Function Attrs: nounwind uwtable
define internal void @lfo_advance(ptr noundef %0, i32 noundef %1) #0 {
  %3 = alloca ptr, align 8
  %4 = alloca i32, align 4
  store ptr %0, ptr %3, align 8, !tbaa !78
  store i32 %1, ptr %4, align 4, !tbaa !12
  %5 = load ptr, ptr %3, align 8, !tbaa !78
  %6 = getelementptr inbounds nuw %struct.SimpleLFO, ptr %5, i32 0, i32 0
  %7 = load double, ptr %6, align 8, !tbaa !80
  %8 = load i32, ptr %4, align 4, !tbaa !12
  %9 = uitofp i32 %8 to double
  %10 = load ptr, ptr %3, align 8, !tbaa !78
  %11 = getelementptr inbounds nuw %struct.SimpleLFO, ptr %10, i32 0, i32 1
  %12 = load double, ptr %11, align 8, !tbaa !85
  %13 = fmul nsz double %9, %12
  %14 = load ptr, ptr %3, align 8, !tbaa !78
  %15 = getelementptr inbounds nuw %struct.SimpleLFO, ptr %14, i32 0, i32 6
  %16 = load i32, ptr %15, align 4, !tbaa !86
  %17 = sitofp i32 %16 to double
  %18 = fdiv nsz double %13, %17
  %19 = fadd nsz double %7, %18
  %20 = call nsz double @llvm.fabs.f64(double %19)
  %21 = load ptr, ptr %3, align 8, !tbaa !78
  %22 = getelementptr inbounds nuw %struct.SimpleLFO, ptr %21, i32 0, i32 0
  store double %20, ptr %22, align 8, !tbaa !80
  %23 = load ptr, ptr %3, align 8, !tbaa !78
  %24 = getelementptr inbounds nuw %struct.SimpleLFO, ptr %23, i32 0, i32 0
  %25 = load double, ptr %24, align 8, !tbaa !80
  %26 = fcmp nsz oge double %25, 1.000000e+00
  br i1 %26, label %27, label %34

27:                                               ; preds = %2
  %28 = load ptr, ptr %3, align 8, !tbaa !78
  %29 = getelementptr inbounds nuw %struct.SimpleLFO, ptr %28, i32 0, i32 0
  %30 = load double, ptr %29, align 8, !tbaa !80
  %31 = frem nsz double %30, 1.000000e+00
  %32 = load ptr, ptr %3, align 8, !tbaa !78
  %33 = getelementptr inbounds nuw %struct.SimpleLFO, ptr %32, i32 0, i32 0
  store double %31, ptr %33, align 8, !tbaa !80
  br label %34

34:                                               ; preds = %27, %2
  ret void
}

; Function Attrs: nounwind uwtable
define internal i32 @filter_frame(ptr noundef %0, ptr noundef %1) #0 {
  %3 = alloca i32, align 4
  %4 = alloca ptr, align 8
  %5 = alloca ptr, align 8
  %6 = alloca ptr, align 8
  %7 = alloca ptr, align 8
  %8 = alloca ptr, align 8
  %9 = alloca ptr, align 8
  %10 = alloca i32, align 4
  %11 = alloca double, align 8
  %12 = alloca double, align 8
  %13 = alloca double, align 8
  %14 = alloca ptr, align 8
  %15 = alloca ptr, align 8
  %16 = alloca i32, align 4
  %17 = alloca i32, align 4
  %18 = alloca double, align 8
  %19 = alloca double, align 8
  %20 = alloca double, align 8
  %21 = alloca double, align 8
  %22 = alloca double, align 8
  %23 = alloca double, align 8
  store ptr %0, ptr %4, align 8, !tbaa !14
  store ptr %1, ptr %5, align 8, !tbaa !16
  call void @llvm.lifetime.start.p0(i64 8, ptr %6) #5
  %24 = load ptr, ptr %4, align 8, !tbaa !14
  %25 = getelementptr inbounds nuw %struct.AVFilterLink, ptr %24, i32 0, i32 2
  %26 = load ptr, ptr %25, align 8, !tbaa !18
  store ptr %26, ptr %6, align 8, !tbaa !4
  call void @llvm.lifetime.start.p0(i64 8, ptr %7) #5
  %27 = load ptr, ptr %6, align 8, !tbaa !4
  %28 = getelementptr inbounds nuw %struct.AVFilterContext, ptr %27, i32 0, i32 7
  %29 = load ptr, ptr %28, align 8, !tbaa !27
  %30 = getelementptr inbounds ptr, ptr %29, i64 0
  %31 = load ptr, ptr %30, align 8, !tbaa !14
  store ptr %31, ptr %7, align 8, !tbaa !14
  call void @llvm.lifetime.start.p0(i64 8, ptr %8) #5
  %32 = load ptr, ptr %6, align 8, !tbaa !4
  %33 = getelementptr inbounds nuw %struct.AVFilterContext, ptr %32, i32 0, i32 9
  %34 = load ptr, ptr %33, align 8, !tbaa !37
  store ptr %34, ptr %8, align 8, !tbaa !38
  call void @llvm.lifetime.start.p0(i64 8, ptr %9) #5
  %35 = load ptr, ptr %5, align 8, !tbaa !16
  %36 = getelementptr inbounds nuw %struct.AVFrame, ptr %35, i32 0, i32 0
  %37 = getelementptr inbounds [8 x ptr], ptr %36, i64 0, i64 0
  %38 = load ptr, ptr %37, align 8, !tbaa !40
  store ptr %38, ptr %9, align 8, !tbaa !41
  call void @llvm.lifetime.start.p0(i64 4, ptr %10) #5
  %39 = load ptr, ptr %5, align 8, !tbaa !16
  %40 = getelementptr inbounds nuw %struct.AVFrame, ptr %39, i32 0, i32 5
  %41 = load i32, ptr %40, align 8, !tbaa !42
  store i32 %41, ptr %10, align 4, !tbaa !12
  call void @llvm.lifetime.start.p0(i64 8, ptr %11) #5
  %42 = load ptr, ptr %8, align 8, !tbaa !38
  %43 = getelementptr inbounds nuw %struct.AudioPulsatorContext, ptr %42, i32 0, i32 3
  %44 = load double, ptr %43, align 8, !tbaa !48
  store double %44, ptr %11, align 8, !tbaa !52
  call void @llvm.lifetime.start.p0(i64 8, ptr %12) #5
  %45 = load ptr, ptr %8, align 8, !tbaa !38
  %46 = getelementptr inbounds nuw %struct.AudioPulsatorContext, ptr %45, i32 0, i32 2
  %47 = load double, ptr %46, align 8, !tbaa !53
  store double %47, ptr %12, align 8, !tbaa !52
  call void @llvm.lifetime.start.p0(i64 8, ptr %13) #5
  %48 = load ptr, ptr %8, align 8, !tbaa !38
  %49 = getelementptr inbounds nuw %struct.AudioPulsatorContext, ptr %48, i32 0, i32 4
  %50 = load double, ptr %49, align 8, !tbaa !54
  store double %50, ptr %13, align 8, !tbaa !52
  call void @llvm.lifetime.start.p0(i64 8, ptr %14) #5
  call void @llvm.lifetime.start.p0(i64 8, ptr %15) #5
  call void @llvm.lifetime.start.p0(i64 4, ptr %16) #5
  %51 = load ptr, ptr %5, align 8, !tbaa !16
  %52 = call i32 @av_frame_is_writable(ptr noundef %51)
  %53 = icmp ne i32 %52, 0
  br i1 %53, label %54, label %56

54:                                               ; preds = %2
  %55 = load ptr, ptr %5, align 8, !tbaa !16
  store ptr %55, ptr %14, align 8, !tbaa !16
  br label %69

56:                                               ; preds = %2
  %57 = load ptr, ptr %4, align 8, !tbaa !14
  %58 = load ptr, ptr %5, align 8, !tbaa !16
  %59 = getelementptr inbounds nuw %struct.AVFrame, ptr %58, i32 0, i32 5
  %60 = load i32, ptr %59, align 8, !tbaa !42
  %61 = call ptr @ff_get_audio_buffer(ptr noundef %57, i32 noundef %60)
  store ptr %61, ptr %14, align 8, !tbaa !16
  %62 = load ptr, ptr %14, align 8, !tbaa !16
  %63 = icmp ne ptr %62, null
  br i1 %63, label %65, label %64

64:                                               ; preds = %56
  call void @av_frame_free(ptr noundef %5)
  store i32 -12, ptr %3, align 4
  store i32 1, ptr %17, align 4
  br label %149

65:                                               ; preds = %56
  %66 = load ptr, ptr %14, align 8, !tbaa !16
  %67 = load ptr, ptr %5, align 8, !tbaa !16
  %68 = call i32 @av_frame_copy_props(ptr noundef %66, ptr noundef %67)
  br label %69

69:                                               ; preds = %65, %54
  %70 = load ptr, ptr %14, align 8, !tbaa !16
  %71 = getelementptr inbounds nuw %struct.AVFrame, ptr %70, i32 0, i32 0
  %72 = getelementptr inbounds [8 x ptr], ptr %71, i64 0, i64 0
  %73 = load ptr, ptr %72, align 8, !tbaa !40
  store ptr %73, ptr %15, align 8, !tbaa !41
  store i32 0, ptr %16, align 4, !tbaa !12
  br label %74

74:                                               ; preds = %137, %69
  %75 = load i32, ptr %16, align 4, !tbaa !12
  %76 = load i32, ptr %10, align 4, !tbaa !12
  %77 = icmp slt i32 %75, %76
  br i1 %77, label %78, label %140

78:                                               ; preds = %74
  call void @llvm.lifetime.start.p0(i64 8, ptr %18) #5
  call void @llvm.lifetime.start.p0(i64 8, ptr %19) #5
  call void @llvm.lifetime.start.p0(i64 8, ptr %20) #5
  %79 = load ptr, ptr %9, align 8, !tbaa !41
  %80 = getelementptr inbounds double, ptr %79, i64 0
  %81 = load double, ptr %80, align 8, !tbaa !52
  %82 = load double, ptr %12, align 8, !tbaa !52
  %83 = fmul nsz double %81, %82
  store double %83, ptr %20, align 8, !tbaa !52
  call void @llvm.lifetime.start.p0(i64 8, ptr %21) #5
  %84 = load ptr, ptr %9, align 8, !tbaa !41
  %85 = getelementptr inbounds double, ptr %84, i64 1
  %86 = load double, ptr %85, align 8, !tbaa !52
  %87 = load double, ptr %12, align 8, !tbaa !52
  %88 = fmul nsz double %86, %87
  store double %88, ptr %21, align 8, !tbaa !52
  call void @llvm.lifetime.start.p0(i64 8, ptr %22) #5
  %89 = load double, ptr %20, align 8, !tbaa !52
  store double %89, ptr %22, align 8, !tbaa !52
  call void @llvm.lifetime.start.p0(i64 8, ptr %23) #5
  %90 = load double, ptr %21, align 8, !tbaa !52
  store double %90, ptr %23, align 8, !tbaa !52
  %91 = load ptr, ptr %8, align 8, !tbaa !38
  %92 = getelementptr inbounds nuw %struct.AudioPulsatorContext, ptr %91, i32 0, i32 12
  %93 = call nsz double @lfo_get_value(ptr noundef %92)
  %94 = load double, ptr %13, align 8, !tbaa !52
  %95 = fdiv nsz double %94, 2.000000e+00
  %96 = call nsz double @llvm.fmuladd.f64(double %93, double 5.000000e-01, double %95)
  %97 = load double, ptr %22, align 8, !tbaa !52
  %98 = fmul nsz double %97, %96
  store double %98, ptr %22, align 8, !tbaa !52
  %99 = load ptr, ptr %8, align 8, !tbaa !38
  %100 = getelementptr inbounds nuw %struct.AudioPulsatorContext, ptr %99, i32 0, i32 13
  %101 = call nsz double @lfo_get_value(ptr noundef %100)
  %102 = load double, ptr %13, align 8, !tbaa !52
  %103 = fdiv nsz double %102, 2.000000e+00
  %104 = call nsz double @llvm.fmuladd.f64(double %101, double 5.000000e-01, double %103)
  %105 = load double, ptr %23, align 8, !tbaa !52
  %106 = fmul nsz double %105, %104
  store double %106, ptr %23, align 8, !tbaa !52
  %107 = load double, ptr %22, align 8, !tbaa !52
  %108 = load double, ptr %20, align 8, !tbaa !52
  %109 = load double, ptr %13, align 8, !tbaa !52
  %110 = fsub nsz double 1.000000e+00, %109
  %111 = call nsz double @llvm.fmuladd.f64(double %108, double %110, double %107)
  store double %111, ptr %18, align 8, !tbaa !52
  %112 = load double, ptr %23, align 8, !tbaa !52
  %113 = load double, ptr %21, align 8, !tbaa !52
  %114 = load double, ptr %13, align 8, !tbaa !52
  %115 = fsub nsz double 1.000000e+00, %114
  %116 = call nsz double @llvm.fmuladd.f64(double %113, double %115, double %112)
  store double %116, ptr %19, align 8, !tbaa !52
  %117 = load double, ptr %11, align 8, !tbaa !52
  %118 = load double, ptr %18, align 8, !tbaa !52
  %119 = fmul nsz double %118, %117
  store double %119, ptr %18, align 8, !tbaa !52
  %120 = load double, ptr %11, align 8, !tbaa !52
  %121 = load double, ptr %19, align 8, !tbaa !52
  %122 = fmul nsz double %121, %120
  store double %122, ptr %19, align 8, !tbaa !52
  %123 = load double, ptr %18, align 8, !tbaa !52
  %124 = load ptr, ptr %15, align 8, !tbaa !41
  %125 = getelementptr inbounds double, ptr %124, i64 0
  store double %123, ptr %125, align 8, !tbaa !52
  %126 = load double, ptr %19, align 8, !tbaa !52
  %127 = load ptr, ptr %15, align 8, !tbaa !41
  %128 = getelementptr inbounds double, ptr %127, i64 1
  store double %126, ptr %128, align 8, !tbaa !52
  %129 = load ptr, ptr %8, align 8, !tbaa !38
  %130 = getelementptr inbounds nuw %struct.AudioPulsatorContext, ptr %129, i32 0, i32 12
  call void @lfo_advance(ptr noundef %130, i32 noundef 1)
  %131 = load ptr, ptr %8, align 8, !tbaa !38
  %132 = getelementptr inbounds nuw %struct.AudioPulsatorContext, ptr %131, i32 0, i32 13
  call void @lfo_advance(ptr noundef %132, i32 noundef 1)
  %133 = load ptr, ptr %15, align 8, !tbaa !41
  %134 = getelementptr inbounds double, ptr %133, i64 2
  store ptr %134, ptr %15, align 8, !tbaa !41
  %135 = load ptr, ptr %9, align 8, !tbaa !41
  %136 = getelementptr inbounds double, ptr %135, i64 2
  store ptr %136, ptr %9, align 8, !tbaa !41
  call void @llvm.lifetime.end.p0(i64 8, ptr %23) #5
  call void @llvm.lifetime.end.p0(i64 8, ptr %22) #5
  call void @llvm.lifetime.end.p0(i64 8, ptr %21) #5
  call void @llvm.lifetime.end.p0(i64 8, ptr %20) #5
  call void @llvm.lifetime.end.p0(i64 8, ptr %19) #5
  call void @llvm.lifetime.end.p0(i64 8, ptr %18) #5
  br label %137

137:                                              ; preds = %78
  %138 = load i32, ptr %16, align 4, !tbaa !12
  %139 = add nsw i32 %138, 1
  store i32 %139, ptr %16, align 4, !tbaa !12
  br label %74, !llvm.loop !55

140:                                              ; preds = %74
  %141 = load ptr, ptr %5, align 8, !tbaa !16
  %142 = load ptr, ptr %14, align 8, !tbaa !16
  %143 = icmp ne ptr %141, %142
  br i1 %143, label %144, label %145

144:                                              ; preds = %140
  call void @av_frame_free(ptr noundef %5)
  br label %145

145:                                              ; preds = %144, %140
  %146 = load ptr, ptr %7, align 8, !tbaa !14
  %147 = load ptr, ptr %14, align 8, !tbaa !16
  %148 = call i32 @ff_filter_frame(ptr noundef %146, ptr noundef %147)
  store i32 %148, ptr %3, align 4
  store i32 1, ptr %17, align 4
  br label %149

149:                                              ; preds = %145, %64
  call void @llvm.lifetime.end.p0(i64 4, ptr %16) #5
  call void @llvm.lifetime.end.p0(i64 8, ptr %15) #5
  call void @llvm.lifetime.end.p0(i64 8, ptr %14) #5
  call void @llvm.lifetime.end.p0(i64 8, ptr %13) #5
  call void @llvm.lifetime.end.p0(i64 8, ptr %12) #5
  call void @llvm.lifetime.end.p0(i64 8, ptr %11) #5
  call void @llvm.lifetime.end.p0(i64 4, ptr %10) #5
  call void @llvm.lifetime.end.p0(i64 8, ptr %9) #5
  call void @llvm.lifetime.end.p0(i64 8, ptr %8) #5
  call void @llvm.lifetime.end.p0(i64 8, ptr %7) #5
  call void @llvm.lifetime.end.p0(i64 8, ptr %6) #5
  %150 = load i32, ptr %3, align 4
  ret i32 %150
}