; Function Attrs: nounwind uwtable
define internal i32 @filter_frame(ptr noundef %0, ptr noundef %1) #0 {
  %3 = alloca ptr, align 8
  store ptr %1, ptr %3, align 8, !tbaa !4
  %4 = getelementptr inbounds nuw i8, ptr %0, i64 16
  %5 = load ptr, ptr %4, align 8, !tbaa !9
  %6 = getelementptr inbounds nuw i8, ptr %5, i64 56
  %7 = load ptr, ptr %6, align 8, !tbaa !21
  %8 = load ptr, ptr %7, align 8, !tbaa !31
  %9 = getelementptr inbounds nuw i8, ptr %5, i64 72
  %10 = load ptr, ptr %9, align 8, !tbaa !33
  %11 = load ptr, ptr %1, align 8, !tbaa !34
  %12 = getelementptr inbounds nuw i8, ptr %1, i64 112
  %13 = load i32, ptr %12, align 8, !tbaa !35
  %14 = getelementptr inbounds nuw i8, ptr %10, i64 24
  %15 = load double, ptr %14, align 8, !tbaa !41
  %16 = getelementptr inbounds nuw i8, ptr %10, i64 16
  %17 = load double, ptr %16, align 8, !tbaa !45
  %18 = getelementptr inbounds nuw i8, ptr %10, i64 32
  %19 = load double, ptr %18, align 8, !tbaa !46
  %20 = tail call i32 @av_frame_is_writable(ptr noundef nonnull %1) #5
  %.not = icmp eq i32 %20, 0
  br i1 %.not, label %21, label %27

21:                                               ; preds = %2
  %22 = load i32, ptr %12, align 8, !tbaa !35
  %23 = tail call ptr @ff_get_audio_buffer(ptr noundef nonnull %0, i32 noundef %22) #5
  %.not51 = icmp eq ptr %23, null
  br i1 %.not51, label %24, label %25

24:                                               ; preds = %21
  call void @av_frame_free(ptr noundef nonnull %3) #5
  br label %79

25:                                               ; preds = %21
  %26 = tail call i32 @av_frame_copy_props(ptr noundef nonnull %23, ptr noundef nonnull %1) #5
  br label %27

27:                                               ; preds = %2, %25
  %.047 = phi ptr [ %23, %25 ], [ %1, %2 ]
  %28 = icmp sgt i32 %13, 0
  br i1 %28, label %.lr.ph, label %._crit_edge

.lr.ph:                                           ; preds = %27
  %29 = load ptr, ptr %.047, align 8, !tbaa !34
  %30 = getelementptr inbounds nuw i8, ptr %10, i64 88
  %31 = fmul nsz double %19, 5.000000e-01
  %32 = getelementptr inbounds nuw i8, ptr %10, i64 136
  %33 = fsub nsz double 1.000000e+00, %19
  %34 = getelementptr inbounds nuw i8, ptr %10, i64 96
  %35 = getelementptr inbounds nuw i8, ptr %10, i64 132
  %36 = getelementptr inbounds nuw i8, ptr %10, i64 144
  %37 = getelementptr inbounds nuw i8, ptr %10, i64 180
  br label %38

38:                                               ; preds = %.lr.ph, %38
  %.04656 = phi ptr [ %11, %.lr.ph ], [ %74, %38 ]
  %.04855 = phi ptr [ %29, %.lr.ph ], [ %73, %38 ]
  %.04954 = phi i32 [ 0, %.lr.ph ], [ %75, %38 ]
  %39 = load double, ptr %.04656, align 8, !tbaa !47
  %40 = fmul nsz double %17, %39
  %41 = getelementptr inbounds nuw i8, ptr %.04656, i64 8
  %42 = load double, ptr %41, align 8, !tbaa !47
  %43 = fmul nsz double %17, %42
  %44 = tail call nsz fastcc double @lfo_get_value(ptr noundef nonnull %30)
  %45 = tail call nsz double @llvm.fmuladd.f64(double %44, double 5.000000e-01, double %31)
  %46 = fmul nsz double %40, %45
  %47 = tail call nsz fastcc double @lfo_get_value(ptr noundef nonnull %32)
  %48 = tail call nsz double @llvm.fmuladd.f64(double %47, double 5.000000e-01, double %31)
  %49 = fmul nsz double %43, %48
  %50 = tail call nsz double @llvm.fmuladd.f64(double %40, double %33, double %46)
  %51 = tail call nsz double @llvm.fmuladd.f64(double %43, double %33, double %49)
  %52 = fmul nsz double %15, %50
  %53 = fmul nsz double %15, %51
  store double %52, ptr %.04855, align 8, !tbaa !47
  %54 = getelementptr inbounds nuw i8, ptr %.04855, i64 8
  store double %53, ptr %54, align 8, !tbaa !47
  %55 = load double, ptr %30, align 8, !tbaa !48
  %56 = load double, ptr %34, align 8, !tbaa !49
  %57 = load i32, ptr %35, align 4, !tbaa !50
  %58 = sitofp i32 %57 to double
  %59 = fdiv nsz double %56, %58
  %60 = fadd nsz double %55, %59
  %61 = tail call nsz double @llvm.fabs.f64(double %60)
  %62 = fcmp nsz ult double %61, 1.000000e+00
  %63 = frem nsz double %61, 1.000000e+00
  %storemerge.i = select i1 %62, double %61, double %63
  store double %storemerge.i, ptr %30, align 8, !tbaa !48
  %64 = load double, ptr %32, align 8, !tbaa !48
  %65 = load double, ptr %36, align 8, !tbaa !49
  %66 = load i32, ptr %37, align 4, !tbaa !50
  %67 = sitofp i32 %66 to double
  %68 = fdiv nsz double %65, %67
  %69 = fadd nsz double %64, %68
  %70 = tail call nsz double @llvm.fabs.f64(double %69)
  %71 = fcmp nsz ult double %70, 1.000000e+00
  %72 = frem nsz double %70, 1.000000e+00
  %storemerge.i53 = select i1 %71, double %70, double %72
  store double %storemerge.i53, ptr %32, align 8, !tbaa !48
  %73 = getelementptr inbounds nuw i8, ptr %.04855, i64 16
  %74 = getelementptr inbounds nuw i8, ptr %.04656, i64 16
  %75 = add nuw nsw i32 %.04954, 1
  %exitcond.not = icmp eq i32 %75, %13
  br i1 %exitcond.not, label %._crit_edge, label %38, !llvm.loop !51

._crit_edge:                                      ; preds = %38, %27
  %.not52 = icmp eq ptr %1, %.047
  br i1 %.not52, label %77, label %76

76:                                               ; preds = %._crit_edge
  call void @av_frame_free(ptr noundef nonnull %3) #5
  br label %77

77:                                               ; preds = %76, %._crit_edge
  %78 = call i32 @ff_filter_frame(ptr noundef %8, ptr noundef nonnull %.047) #5
  br label %79

79:                                               ; preds = %77, %24
  %.0 = phi i32 [ %78, %77 ], [ -12, %24 ]
  ret i32 %.0
}